target datalayout = "e-m:e-p270:32:32-p271:32:32-p272:64:64-i64:64-i128:128-f80:128-n8:16:32:64-S128"
target triple = "x86_64-pc-linux-gnu"

; Function Attrs: alwaysinline nounwind uwtable
define internal i64 @ma_clip_s24(i64 noundef %0) #7 {
  %2 = alloca i64, align 8
  store i64 %0, ptr %2, align 8
  %3 = load i64, ptr %2, align 8
  %4 = icmp slt i64 %3, 8388607
  br i1 %4, label %5, label %7

5:                                                ; preds = %1
  %6 = load i64, ptr %2, align 8
  br label %8

7:                                                ; preds = %1
  br label %8

8:                                                ; preds = %7, %5
  %9 = phi i64 [ %6, %5 ], [ 8388607, %7 ]
  %10 = icmp sgt i64 -8388608, %9
  br i1 %10, label %11, label %12

11:                                               ; preds = %8
  br label %20

12:                                               ; preds = %8
  %13 = load i64, ptr %2, align 8
  %14 = icmp slt i64 %13, 8388607
  br i1 %14, label %15, label %17

15:                                               ; preds = %12
  %16 = load i64, ptr %2, align 8
  br label %18

17:                                               ; preds = %12
  br label %18

18:                                               ; preds = %17, %15
  %19 = phi i64 [ %16, %15 ], [ 8388607, %17 ]
  br label %20

20:                                               ; preds = %18, %11
  %21 = phi i64 [ -8388608, %11 ], [ %19, %18 ]
  ret i64 %21
}

; Function Attrs: nounwind uwtable
define hidden void @ma_clip_samples_s24(ptr noundef %0, ptr noundef %1, i64 noundef %2) #0 {
  %4 = alloca ptr, align 8
  %5 = alloca ptr, align 8
  %6 = alloca i64, align 8
  %7 = alloca i64, align 8
  %8 = alloca i64, align 8
  store ptr %0, ptr %4, align 8
  store ptr %1, ptr %5, align 8
  store i64 %2, ptr %6, align 8
  call void @llvm.lifetime.start.p0(i64 8, ptr %7) #21
  store i64 0, ptr %7, align 8
  br label %9

9:                                                ; preds = %46, %3
  %10 = load i64, ptr %7, align 8
  %11 = load i64, ptr %6, align 8
  %12 = icmp ult i64 %10, %11
  br i1 %12, label %13, label %49

13:                                               ; preds = %9
  call void @llvm.lifetime.start.p0(i64 8, ptr %8) #21
  %14 = load ptr, ptr %5, align 8
  %15 = load i64, ptr %7, align 8
  %16 = getelementptr inbounds nuw i64, ptr %14, i64 %15
  %17 = load i64, ptr %16, align 8
  %18 = call i64 @ma_clip_s24(i64 noundef %17)
  store i64 %18, ptr %8, align 8
  %19 = load i64, ptr %8, align 8
  %20 = and i64 %19, 255
  %21 = ashr i64 %20, 0
  %22 = trunc i64 %21 to i8
  %23 = load ptr, ptr %4, align 8
  %24 = load i64, ptr %7, align 8
  %25 = mul i64 %24, 3
  %26 = add i64 %25, 0
  %27 = getelementptr inbounds nuw i8, ptr %23, i64 %26
  store i8 %22, ptr %27, align 1
  %28 = load i64, ptr %8, align 8
  %29 = and i64 %28, 65280
  %30 = ashr i64 %29, 8
  %31 = trunc i64 %30 to i8
  %32 = load ptr, ptr %4, align 8
  %33 = load i64, ptr %7, align 8
  %34 = mul i64 %33, 3
  %35 = add i64 %34, 1
  %36 = getelementptr inbounds nuw i8, ptr %32, i64 %35
  store i8 %31, ptr %36, align 1
  %37 = load i64, ptr %8, align 8
  %38 = and i64 %37, 16711680
  %39 = ashr i64 %38, 16
  %40 = trunc i64 %39 to i8
  %41 = load ptr, ptr %4, align 8
  %42 = load i64, ptr %7, align 8
  %43 = mul i64 %42, 3
  %44 = add i64 %43, 2
  %45 = getelementptr inbounds nuw i8, ptr %41, i64 %44
  store i8 %40, ptr %45, align 1
  call void @llvm.lifetime.end.p0(i64 8, ptr %8) #21
  br label %46

46:                                               ; preds = %13
  %47 = load i64, ptr %7, align 8
  %48 = add i64 %47, 1
  store i64 %48, ptr %7, align 8
  br label %9

49:                                               ; preds = %9
  call void @llvm.lifetime.end.p0(i64 8, ptr %7) #21
  ret void
}