; Function Attrs: nofree norecurse nosync nounwind memory(argmem: readwrite) uwtable
define hidden void @ma_clip_samples_s24(ptr noundef writeonly captures(none) %0, ptr noundef readonly captures(none) %1, i64 noundef %2) local_unnamed_addr #23 {
  %.not = icmp eq i64 %2, 0
  br i1 %.not, label %._crit_edge, label %.lr.ph

.lr.ph:                                           ; preds = %3, %.lr.ph
  %.013 = phi i64 [ %17, %.lr.ph ], [ 0, %3 ]
  %4 = getelementptr inbounds nuw i64, ptr %1, i64 %.013
  %5 = load i64, ptr %4, align 8
  %6 = tail call i64 @llvm.smin.i64(i64 %5, i64 8388607)
  %7 = tail call i64 @llvm.smax.i64(i64 %6, i64 -8388608)
  %8 = trunc i64 %7 to i8
  %9 = mul i64 %.013, 3
  %10 = getelementptr inbounds nuw i8, ptr %0, i64 %9
  store i8 %8, ptr %10, align 1
  %11 = lshr i64 %7, 8
  %12 = trunc i64 %11 to i8
  %13 = getelementptr i8, ptr %10, i64 1
  store i8 %12, ptr %13, align 1
  %14 = lshr i64 %7, 16
  %15 = trunc i64 %14 to i8
  %16 = getelementptr i8, ptr %10, i64 2
  store i8 %15, ptr %16, align 1
  %17 = add nuw i64 %.013, 1
  %exitcond.not = icmp eq i64 %17, %2
  br i1 %exitcond.not, label %._crit_edge, label %.lr.ph

._crit_edge:                                      ; preds = %.lr.ph, %3
  ret void
}